target datalayout = "e-m:e-p270:32:32-p271:32:32-p272:64:64-i64:64-i128:128-f80:128-n8:16:32:64-S128"
target triple = "x86_64-pc-linux-gnu"

%struct._tvbparse_wanted_t = type { i32, ptr, %union.anon, i32, i32, i32, ptr, ptr, ptr }
%union.anon = type { %struct.anon.2 }
%struct.anon.2 = type { ptr, ptr, ptr }

; Function Attrs: null_pointer_is_valid sspstrong uwtable
define ptr @tvbparse_char(i32 noundef %0, ptr noundef %1, ptr noundef %2, ptr noundef %3, ptr noundef %4) #0 {
  %6 = alloca i32, align 4
  %7 = alloca ptr, align 8
  %8 = alloca ptr, align 8
  %9 = alloca ptr, align 8
  %10 = alloca ptr, align 8
  %11 = alloca ptr, align 8
  store i32 %0, ptr %6, align 4
  store ptr %1, ptr %7, align 8
  store ptr %2, ptr %8, align 8
  store ptr %3, ptr %9, align 8
  store ptr %4, ptr %10, align 8
  call void @llvm.lifetime.start.p0(i64 8, ptr %11) #11
  %12 = call ptr @wmem_epan_scope()
  %13 = call noalias ptr @wmem_alloc0(ptr noundef %12, i64 noundef 80) #12
  store ptr %13, ptr %11, align 8
  %14 = load ptr, ptr %11, align 8
  %15 = getelementptr inbounds nuw %struct._tvbparse_wanted_t, ptr %14, i32 0, i32 1
  store ptr @cond_char, ptr %15, align 8
  %16 = load i32, ptr %6, align 4
  %17 = load ptr, ptr %11, align 8
  %18 = getelementptr inbounds nuw %struct._tvbparse_wanted_t, ptr %17, i32 0, i32 0
  store i32 %16, ptr %18, align 8
  %19 = load ptr, ptr %7, align 8
  %20 = load ptr, ptr %11, align 8
  %21 = getelementptr inbounds nuw %struct._tvbparse_wanted_t, ptr %20, i32 0, i32 2
  store ptr %19, ptr %21, align 8
  %22 = load ptr, ptr %11, align 8
  %23 = getelementptr inbounds nuw %struct._tvbparse_wanted_t, ptr %22, i32 0, i32 3
  store i32 1, ptr %23, align 8
  %24 = load ptr, ptr %8, align 8
  %25 = load ptr, ptr %11, align 8
  %26 = getelementptr inbounds nuw %struct._tvbparse_wanted_t, ptr %25, i32 0, i32 6
  store ptr %24, ptr %26, align 8
  %27 = load ptr, ptr %9, align 8
  %28 = load ptr, ptr %11, align 8
  %29 = getelementptr inbounds nuw %struct._tvbparse_wanted_t, ptr %28, i32 0, i32 7
  store ptr %27, ptr %29, align 8
  %30 = load ptr, ptr %10, align 8
  %31 = load ptr, ptr %11, align 8
  %32 = getelementptr inbounds nuw %struct._tvbparse_wanted_t, ptr %31, i32 0, i32 8
  store ptr %30, ptr %32, align 8
  %33 = load ptr, ptr %11, align 8
  call void @llvm.lifetime.end.p0(i64 8, ptr %11) #11
  ret ptr %33
}